; Function Attrs: mustprogress uwtable
define dso_local void @_ZN4absl24synchronization_internal13PthreadWaiter4PostEv(ptr noundef nonnull align 8 dereferenceable(96) %0) local_unnamed_addr #0 align 2 personality ptr @__gxx_personality_v0 {
  %2 = tail call i32 @pthread_mutex_lock(ptr noundef nonnull %0) #7
  %.not.i = icmp eq i32 %2, 0
  br i1 %.not.i, label %_ZN4absl24synchronization_internal12_GLOBAL__N_118PthreadMutexHolderC2EP15pthread_mutex_t.exit, label %3

3:                                                ; preds = %1
  tail call void (i32, ptr, i32, ptr, ...) @_ZN4absl16raw_log_internal6RawLogENS_11LogSeverityEPKciS3_z(i32 noundef 3, ptr noundef nonnull getelementptr inbounds nuw (i8, ptr @.str, i64 129), i32 noundef 42, ptr noundef nonnull @.str.6, i32 noundef %2)
  unreachable

_ZN4absl24synchronization_internal12_GLOBAL__N_118PthreadMutexHolderC2EP15pthread_mutex_t.exit: ; preds = %1
  %4 = getelementptr inbounds nuw i8, ptr %0, i64 92
  %5 = load i32, ptr %4, align 4, !tbaa !9
  %6 = add nsw i32 %5, 1
  store i32 %6, ptr %4, align 4, !tbaa !9
  %7 = getelementptr inbounds nuw i8, ptr %0, i64 88
  %8 = load i32, ptr %7, align 8, !tbaa !4
  %.not.i3 = icmp eq i32 %8, 0
  br i1 %.not.i3, label %_ZN4absl24synchronization_internal13PthreadWaiter19InternalCondVarPokeEv.exit, label %9

9:                                                ; preds = %_ZN4absl24synchronization_internal12_GLOBAL__N_118PthreadMutexHolderC2EP15pthread_mutex_t.exit
  %10 = getelementptr inbounds nuw i8, ptr %0, i64 40
  %11 = tail call i32 @pthread_cond_signal(ptr noundef nonnull %10) #7
  %.not2.i = icmp eq i32 %11, 0
  br i1 %.not2.i, label %_ZN4absl24synchronization_internal13PthreadWaiter19InternalCondVarPokeEv.exit, label %12, !prof !12

12:                                               ; preds = %9
  invoke void (i32, ptr, i32, ptr, ...) @_ZN4absl16raw_log_internal6RawLogENS_11LogSeverityEPKciS3_z(i32 noundef 3, ptr noundef nonnull getelementptr inbounds nuw (i8, ptr @.str, i64 129), i32 noundef 158, ptr noundef nonnull @.str.5, i32 noundef %11)
          to label %.noexc unwind label %19

.noexc:                                           ; preds = %12
  unreachable

_ZN4absl24synchronization_internal13PthreadWaiter19InternalCondVarPokeEv.exit: ; preds = %9, %_ZN4absl24synchronization_internal12_GLOBAL__N_118PthreadMutexHolderC2EP15pthread_mutex_t.exit
  %13 = tail call i32 @pthread_mutex_unlock(ptr noundef nonnull %0) #7
  %.not.i4 = icmp eq i32 %13, 0
  br i1 %.not.i4, label %_ZN4absl24synchronization_internal12_GLOBAL__N_118PthreadMutexHolderD2Ev.exit, label %14

14:                                               ; preds = %_ZN4absl24synchronization_internal13PthreadWaiter19InternalCondVarPokeEv.exit
  invoke void (i32, ptr, i32, ptr, ...) @_ZN4absl16raw_log_internal6RawLogENS_11LogSeverityEPKciS3_z(i32 noundef 3, ptr noundef nonnull getelementptr inbounds nuw (i8, ptr @.str, i64 129), i32 noundef 52, ptr noundef nonnull @.str.7, i32 noundef %13)
          to label %15 unwind label %16

15:                                               ; preds = %14
  unreachable

16:                                               ; preds = %14
  %17 = landingpad { ptr, i32 }
          catch ptr null
  %18 = extractvalue { ptr, i32 } %17, 0
  tail call void @__clang_call_terminate(ptr %18) #8
  unreachable

_ZN4absl24synchronization_internal12_GLOBAL__N_118PthreadMutexHolderD2Ev.exit: ; preds = %_ZN4absl24synchronization_internal13PthreadWaiter19InternalCondVarPokeEv.exit
  ret void

19:                                               ; preds = %12
  %20 = landingpad { ptr, i32 }
          cleanup
  tail call fastcc void @_ZN4absl24synchronization_internal12_GLOBAL__N_118PthreadMutexHolderD2Ev(ptr nonnull %0) #7
  resume { ptr, i32 } %20
}